target datalayout = "e-m:e-p270:32:32-p271:32:32-p272:64:64-i64:64-i128:128-f80:128-n8:16:32:64-S128"
target triple = "x86_64-unknown-linux-gnu"

%struct.QTailQLink = type { ptr, ptr }
%struct.BlockDriverState = type { i32, i8, i8, i8, i8, i8, ptr, ptr, ptr, %struct.anon.0, i8, [4096 x i8], [4096 x i8], [4096 x i8], [16 x i8], ptr, [4096 x i8], %struct.BlockLimits, i32, i32, i32, i32, [32 x i8], %union.anon.1, %union.anon.2, %union.anon.3, i32, [16 x %struct.anon.4], ptr, %struct.anon.5, ptr, ptr, %struct.anon.6, ptr, ptr, i32, ptr, i64, i64, %struct.QemuMutex, %struct.anon.7, %struct.Stat64, i32, i32, i32, i32, i32, i32, %struct.QemuMutex, %struct.anon.8, %struct.CoQueue, i8, i32, i8, %struct.CoMutex, ptr, ptr }
%struct.anon.0 = type { ptr }
%struct.BlockLimits = type { i32, i64, i32, i64, i32, i32, i32, i64, i32, i64, i64, i32, i8, i32, i32, i32, i32, i32, i32, i32 }
%union.anon.1 = type { %struct.QTailQLink }
%union.anon.2 = type { %struct.QTailQLink }
%union.anon.3 = type { %struct.QTailQLink }
%struct.anon.4 = type { ptr }
%struct.anon.5 = type { ptr }
%struct.anon.6 = type { ptr }
%struct.anon.7 = type { ptr }
%struct.Stat64 = type { i64 }
%struct.QemuMutex = type { %union.pthread_mutex_t, i8 }
%union.pthread_mutex_t = type { %struct.__pthread_mutex_s }
%struct.__pthread_mutex_s = type { i32, i32, i32, i32, i32, i16, i16, %struct.__pthread_internal_list }
%struct.__pthread_internal_list = type { ptr, ptr }
%struct.anon.8 = type { ptr }
%struct.CoQueue = type { %struct.anon.9 }
%struct.anon.9 = type { ptr, ptr }
%struct.CoMutex = type { i32, ptr, %struct.anon.10, %struct.anon.10, i32, i32, ptr }
%struct.anon.10 = type { ptr }
%struct.BDRVVmdkState = type { %struct.CoMutex, i64, i8, i8, i32, i32, i32, ptr, ptr, ptr }
%struct.VmdkExtent = type { ptr, i8, i8, i8, i8, i8, i64, i64, i32, i32, i64, i64, i64, i64, i64, ptr, ptr, i32, i32, i32, ptr, [16 x i32], [16 x i32], i64, i64, ptr }
%struct.BdrvChild = type { ptr, ptr, ptr, i32, ptr, i64, i64, i8, i8, %struct.anon.11, %struct.anon.12 }
%struct.anon.11 = type { ptr, ptr }
%struct.anon.12 = type { ptr, ptr }
%struct.BdrvCheckResult = type { i32, i32, i32, i32, i32, i64, %struct.BlockFragInfo }
%struct.BlockFragInfo = type { i64, i64, i64, i64 }

@stderr = external global ptr, align 8
@.str.127 = private unnamed_addr constant [45 x i8] c"ERROR: could not find extent for sector %ld\0A\00", align 1
@.str.128 = private unnamed_addr constant [52 x i8] c"ERROR: could not get cluster_offset for sector %ld\0A\00", align 1
@.str.129 = private unnamed_addr constant [56 x i8] c"ERROR: could not get extent file length for sector %ld\0A\00", align 1
@.str.130 = private unnamed_addr constant [55 x i8] c"ERROR: cluster offset for sector %ld points after EOF\0A\00", align 1

; Function Attrs: nounwind sspstrong uwtable
define internal ptr @find_extent(ptr noundef %s, i64 noundef %sector_num, ptr noundef %start_hint) #0 {
entry:
  %retval = alloca ptr, align 8
  %s.addr = alloca ptr, align 8
  %sector_num.addr = alloca i64, align 8
  %start_hint.addr = alloca ptr, align 8
  %extent = alloca ptr, align 8
  store ptr %s, ptr %s.addr, align 8
  store i64 %sector_num, ptr %sector_num.addr, align 8
  store ptr %start_hint, ptr %start_hint.addr, align 8
  %0 = load ptr, ptr %start_hint.addr, align 8
  store ptr %0, ptr %extent, align 8
  %1 = load ptr, ptr %extent, align 8
  %tobool = icmp ne ptr %1, null
  br i1 %tobool, label %if.end, label %if.then

if.then:                                          ; preds = %entry
  %2 = load ptr, ptr %s.addr, align 8
  %extents = getelementptr inbounds %struct.BDRVVmdkState, ptr %2, i32 0, i32 7
  %3 = load ptr, ptr %extents, align 8
  %arrayidx = getelementptr %struct.VmdkExtent, ptr %3, i64 0
  store ptr %arrayidx, ptr %extent, align 8
  br label %if.end

if.end:                                           ; preds = %if.then, %entry
  br label %while.cond

while.cond:                                       ; preds = %if.end5, %if.end
  %4 = load ptr, ptr %extent, align 8
  %5 = load ptr, ptr %s.addr, align 8
  %extents1 = getelementptr inbounds %struct.BDRVVmdkState, ptr %5, i32 0, i32 7
  %6 = load ptr, ptr %extents1, align 8
  %7 = load ptr, ptr %s.addr, align 8
  %num_extents = getelementptr inbounds %struct.BDRVVmdkState, ptr %7, i32 0, i32 6
  %8 = load i32, ptr %num_extents, align 4
  %idxprom = sext i32 %8 to i64
  %arrayidx2 = getelementptr %struct.VmdkExtent, ptr %6, i64 %idxprom
  %cmp = icmp ult ptr %4, %arrayidx2
  br i1 %cmp, label %while.body, label %while.end

while.body:                                       ; preds = %while.cond
  %9 = load i64, ptr %sector_num.addr, align 8
  %10 = load ptr, ptr %extent, align 8
  %end_sector = getelementptr inbounds %struct.VmdkExtent, ptr %10, i32 0, i32 11
  %11 = load i64, ptr %end_sector, align 8
  %cmp3 = icmp slt i64 %9, %11
  br i1 %cmp3, label %if.then4, label %if.end5

if.then4:                                         ; preds = %while.body
  %12 = load ptr, ptr %extent, align 8
  store ptr %12, ptr %retval, align 8
  br label %return

if.end5:                                          ; preds = %while.body
  %13 = load ptr, ptr %extent, align 8
  %incdec.ptr = getelementptr %struct.VmdkExtent, ptr %13, i32 1
  store ptr %incdec.ptr, ptr %extent, align 8
  br label %while.cond, !llvm.loop !28

while.end:                                        ; preds = %while.cond
  store ptr null, ptr %retval, align 8
  br label %return

return:                                           ; preds = %while.end, %if.then4
  %14 = load ptr, ptr %retval, align 8
  ret ptr %14
}

; Function Attrs: nounwind sspstrong uwtable
define internal i32 @vmdk_co_check(ptr noundef %bs, ptr noundef %result, i32 noundef %fix) #0 {
entry:
  %retval = alloca i32, align 4
  %bs.addr = alloca ptr, align 8
  %result.addr = alloca ptr, align 8
  %fix.addr = alloca i32, align 4
  %s = alloca ptr, align 8
  %extent = alloca ptr, align 8
  %sector_num = alloca i64, align 8
  %total_sectors = alloca i64, align 8
  %ret = alloca i32, align 4
  %cluster_offset = alloca i64, align 8
  %extent_len = alloca i64, align 8
  store ptr %bs, ptr %bs.addr, align 8
  store ptr %result, ptr %result.addr, align 8
  store i32 %fix, ptr %fix.addr, align 4
  %0 = load ptr, ptr %bs.addr, align 8
  %opaque = getelementptr inbounds %struct.BlockDriverState, ptr %0, i32 0, i32 7
  %1 = load ptr, ptr %opaque, align 8
  store ptr %1, ptr %s, align 8
  store ptr null, ptr %extent, align 8
  store i64 0, ptr %sector_num, align 8
  %2 = load ptr, ptr %bs.addr, align 8
  %call = call i64 @bdrv_co_nb_sectors(ptr noundef %2)
  store i64 %call, ptr %total_sectors, align 8
  %3 = load i32, ptr %fix.addr, align 4
  %tobool = icmp ne i32 %3, 0
  br i1 %tobool, label %if.then, label %if.end

if.then:                                          ; preds = %entry
  store i32 -95, ptr %retval, align 4
  br label %return

if.end:                                           ; preds = %entry
  br label %for.cond

for.cond:                                         ; preds = %if.end26, %if.end
  %4 = load i64, ptr %sector_num, align 8
  %5 = load i64, ptr %total_sectors, align 8
  %cmp = icmp sge i64 %4, %5
  br i1 %cmp, label %if.then1, label %if.end2

if.then1:                                         ; preds = %for.cond
  store i32 0, ptr %retval, align 4
  br label %return

if.end2:                                          ; preds = %for.cond
  %6 = load ptr, ptr %s, align 8
  %7 = load i64, ptr %sector_num, align 8
  %8 = load ptr, ptr %extent, align 8
  %call3 = call ptr @find_extent(ptr noundef %6, i64 noundef %7, ptr noundef %8)
  store ptr %call3, ptr %extent, align 8
  %9 = load ptr, ptr %extent, align 8
  %tobool4 = icmp ne ptr %9, null
  br i1 %tobool4, label %if.end7, label %if.then5

if.then5:                                         ; preds = %if.end2
  %10 = load ptr, ptr @stderr, align 8
  %11 = load i64, ptr %sector_num, align 8
  %call6 = call i32 (ptr, ptr, ...) @fprintf(ptr noundef %10, ptr noundef @.str.127, i64 noundef %11)
  store i32 -22, ptr %ret, align 4
  br label %for.end

if.end7:                                          ; preds = %if.end2
  %12 = load ptr, ptr %bs.addr, align 8
  %13 = load ptr, ptr %extent, align 8
  %14 = load i64, ptr %sector_num, align 8
  %shl = shl i64 %14, 9
  %call8 = call i32 @get_cluster_offset(ptr noundef %12, ptr noundef %13, ptr noundef null, i64 noundef %shl, i1 noundef zeroext false, ptr noundef %cluster_offset, i64 noundef 0, i64 noundef 0)
  store i32 %call8, ptr %ret, align 4
  %15 = load i32, ptr %ret, align 4
  %cmp9 = icmp eq i32 %15, -1
  br i1 %cmp9, label %if.then10, label %if.end12

if.then10:                                        ; preds = %if.end7
  %16 = load ptr, ptr @stderr, align 8
  %17 = load i64, ptr %sector_num, align 8
  %call11 = call i32 (ptr, ptr, ...) @fprintf(ptr noundef %16, ptr noundef @.str.128, i64 noundef %17)
  br label %for.end

if.end12:                                         ; preds = %if.end7
  %18 = load i32, ptr %ret, align 4
  %cmp13 = icmp eq i32 %18, 0
  br i1 %cmp13, label %if.then14, label %if.end26

if.then14:                                        ; preds = %if.end12
  %19 = load ptr, ptr %extent, align 8
  %file = getelementptr inbounds %struct.VmdkExtent, ptr %19, i32 0, i32 0
  %20 = load ptr, ptr %file, align 8
  %bs15 = getelementptr inbounds %struct.BdrvChild, ptr %20, i32 0, i32 0
  %21 = load ptr, ptr %bs15, align 8
  %call16 = call i64 @bdrv_co_getlength(ptr noundef %21)
  store i64 %call16, ptr %extent_len, align 8
  %22 = load i64, ptr %extent_len, align 8
  %cmp17 = icmp slt i64 %22, 0
  br i1 %cmp17, label %if.then18, label %if.end20

if.then18:                                        ; preds = %if.then14
  %23 = load ptr, ptr @stderr, align 8
  %24 = load i64, ptr %sector_num, align 8
  %call19 = call i32 (ptr, ptr, ...) @fprintf(ptr noundef %23, ptr noundef @.str.129, i64 noundef %24)
  %25 = load i64, ptr %extent_len, align 8
  %conv = trunc i64 %25 to i32
  store i32 %conv, ptr %ret, align 4
  br label %for.end

if.end20:                                         ; preds = %if.then14
  %26 = load i64, ptr %cluster_offset, align 8
  %27 = load i64, ptr %extent_len, align 8
  %cmp21 = icmp uge i64 %26, %27
  br i1 %cmp21, label %if.then23, label %if.end25

if.then23:                                        ; preds = %if.end20
  %28 = load ptr, ptr @stderr, align 8
  %29 = load i64, ptr %sector_num, align 8
  %call24 = call i32 (ptr, ptr, ...) @fprintf(ptr noundef %28, ptr noundef @.str.130, i64 noundef %29)
  store i32 -22, ptr %ret, align 4
  br label %for.end

if.end25:                                         ; preds = %if.end20
  br label %if.end26

if.end26:                                         ; preds = %if.end25, %if.end12
  %30 = load ptr, ptr %extent, align 8
  %cluster_sectors = getelementptr inbounds %struct.VmdkExtent, ptr %30, i32 0, i32 23
  %31 = load i64, ptr %cluster_sectors, align 8
  %32 = load i64, ptr %sector_num, align 8
  %add = add i64 %32, %31
  store i64 %add, ptr %sector_num, align 8
  br label %for.cond

for.end:                                          ; preds = %if.then23, %if.then18, %if.then10, %if.then5
  %33 = load ptr, ptr %result.addr, align 8
  %corruptions = getelementptr inbounds %struct.BdrvCheckResult, ptr %33, i32 0, i32 0
  %34 = load i32, ptr %corruptions, align 8
  %inc = add i32 %34, 1
  store i32 %inc, ptr %corruptions, align 8
  %35 = load i32, ptr %ret, align 4
  store i32 %35, ptr %retval, align 4
  br label %return

return:                                           ; preds = %for.end, %if.then1, %if.then
  %36 = load i32, ptr %retval, align 4
  ret i32 %36
}