; Function Attrs: nounwind sspstrong uwtable
define internal i32 @vmdk_co_check(ptr noundef %bs, ptr noundef captures(none) %result, i32 noundef %fix) #0 {
entry:
  %cluster_offset = alloca i64, align 8
  %opaque = getelementptr inbounds nuw i8, ptr %bs, i64 24
  %0 = load ptr, ptr %opaque, align 8
  %call = tail call i64 @bdrv_co_nb_sectors(ptr noundef %bs) #15
  %tobool.not = icmp eq i32 %fix, 0
  br i1 %tobool.not, label %for.cond.preheader, label %return

for.cond.preheader:                               ; preds = %entry
  %cmp.not29 = icmp sgt i64 %call, 0
  br i1 %cmp.not29, label %if.end2.lr.ph, label %return

if.end2.lr.ph:                                    ; preds = %for.cond.preheader
  %extents.i = getelementptr inbounds nuw i8, ptr %0, i64 72
  %num_extents.i = getelementptr inbounds nuw i8, ptr %0, i64 68
  br label %if.end2

if.end2:                                          ; preds = %if.end2.lr.ph, %if.end26
  %extent.031 = phi ptr [ null, %if.end2.lr.ph ], [ %extent.18.i, %if.end26 ]
  %sector_num.030 = phi i64 [ 0, %if.end2.lr.ph ], [ %add, %if.end26 ]
  %tobool.not.i = icmp eq ptr %extent.031, null
  %1 = load ptr, ptr %extents.i, align 8
  %.start_hint.i = select i1 %tobool.not.i, ptr %1, ptr %extent.031
  %2 = load i32, ptr %num_extents.i, align 4
  %idxprom.i = sext i32 %2 to i64
  %arrayidx2.i = getelementptr %struct.VmdkExtent, ptr %1, i64 %idxprom.i
  %cmp7.i = icmp ult ptr %.start_hint.i, %arrayidx2.i
  br i1 %cmp7.i, label %while.body.i, label %if.then5

while.body.i:                                     ; preds = %if.end2, %if.end5.i
  %extent.18.i = phi ptr [ %incdec.ptr.i, %if.end5.i ], [ %.start_hint.i, %if.end2 ]
  %end_sector.i = getelementptr inbounds nuw i8, ptr %extent.18.i, i64 48
  %3 = load i64, ptr %end_sector.i, align 8
  %cmp3.i = icmp slt i64 %sector_num.030, %3
  br i1 %cmp3.i, label %if.end7, label %if.end5.i

if.end5.i:                                        ; preds = %while.body.i
  %incdec.ptr.i = getelementptr i8, ptr %extent.18.i, i64 272
  %cmp.i = icmp ult ptr %incdec.ptr.i, %arrayidx2.i
  br i1 %cmp.i, label %while.body.i, label %if.then5, !llvm.loop !13

if.then5:                                         ; preds = %if.end2, %if.end5.i
  %4 = load ptr, ptr @stderr, align 8
  %call6 = tail call i32 (ptr, ptr, ...) @fprintf(ptr noundef %4, ptr noundef nonnull @.str.127, i64 noundef %sector_num.030) #20
  br label %for.end

if.end7:                                          ; preds = %while.body.i
  %shl = shl i64 %sector_num.030, 9
  %call8 = call i32 @get_cluster_offset(ptr noundef %bs, ptr noundef nonnull %extent.18.i, ptr noundef null, i64 noundef %shl, i1 noundef zeroext false, ptr noundef nonnull %cluster_offset, i64 noundef 0, i64 noundef 0)
  switch i32 %call8, label %if.end26 [
    i32 -1, label %if.then10
    i32 0, label %if.then14
  ]

if.then10:                                        ; preds = %if.end7
  %5 = load ptr, ptr @stderr, align 8
  %call11 = tail call i32 (ptr, ptr, ...) @fprintf(ptr noundef %5, ptr noundef nonnull @.str.128, i64 noundef %sector_num.030) #20
  br label %for.end

if.then14:                                        ; preds = %if.end7
  %6 = load ptr, ptr %extent.18.i, align 8
  %7 = load ptr, ptr %6, align 8
  %call16 = tail call i64 @bdrv_co_getlength(ptr noundef %7) #15
  %cmp17 = icmp slt i64 %call16, 0
  br i1 %cmp17, label %if.then18, label %if.end20

if.then18:                                        ; preds = %if.then14
  %8 = load ptr, ptr @stderr, align 8
  %call19 = tail call i32 (ptr, ptr, ...) @fprintf(ptr noundef %8, ptr noundef nonnull @.str.129, i64 noundef %sector_num.030) #20
  %conv = trunc i64 %call16 to i32
  br label %for.end

if.end20:                                         ; preds = %if.then14
  %9 = load i64, ptr %cluster_offset, align 8
  %cmp21.not = icmp ult i64 %9, %call16
  br i1 %cmp21.not, label %if.end26, label %if.then23

if.then23:                                        ; preds = %if.end20
  %10 = load ptr, ptr @stderr, align 8
  %call24 = tail call i32 (ptr, ptr, ...) @fprintf(ptr noundef %10, ptr noundef nonnull @.str.130, i64 noundef %sector_num.030) #20
  br label %for.end

if.end26:                                         ; preds = %if.end7, %if.end20
  %cluster_sectors = getelementptr inbounds nuw i8, ptr %extent.18.i, i64 248
  %11 = load i64, ptr %cluster_sectors, align 8
  %add = add i64 %11, %sector_num.030
  %cmp.not = icmp slt i64 %add, %call
  br i1 %cmp.not, label %if.end2, label %return

for.end:                                          ; preds = %if.then23, %if.then18, %if.then10, %if.then5
  %ret.0 = phi i32 [ -1, %if.then10 ], [ %conv, %if.then18 ], [ -22, %if.then23 ], [ -22, %if.then5 ]
  %12 = load i32, ptr %result, align 8
  %inc = add i32 %12, 1
  store i32 %inc, ptr %result, align 8
  br label %return

return:                                           ; preds = %if.end26, %for.cond.preheader, %entry, %for.end
  %retval.0 = phi i32 [ %ret.0, %for.end ], [ -95, %entry ], [ 0, %for.cond.preheader ], [ 0, %if.end26 ]
  ret i32 %retval.0
}